target datalayout = "e-m:e-p270:32:32-p271:32:32-p272:64:64-i64:64-i128:128-f80:128-n8:16:32:64-S128"
target triple = "x86_64-unknown-linux-gnu"

%"class.std::__cxx11::basic_string" = type { %"struct.std::__cxx11::basic_string<char>::_Alloc_hider", i64, %union.anon }
%"struct.std::__cxx11::basic_string<char>::_Alloc_hider" = type { ptr }
%union.anon = type { i64, [8 x i8] }
%"struct.grpc_core::XdsApi::ResourceMetadata" = type { i32, %"class.std::__cxx11::basic_string", %"class.grpc_core::Timestamp", %"class.std::__cxx11::basic_string", %"class.std::__cxx11::basic_string", %"class.std::__cxx11::basic_string", %"class.grpc_core::Timestamp" }
%"class.grpc_core::Timestamp" = type { i64 }

; Function Attrs: mustprogress nounwind uwtable
define linkonce_odr void @_ZN9grpc_core9TimestampC2Ev(ptr noundef nonnull align 8 dereferenceable(8) %this) unnamed_addr #5 comdat align 2 {
entry:
  %this.addr = alloca ptr, align 8
  store ptr %this, ptr %this.addr, align 8
  %this1 = load ptr, ptr %this.addr, align 8
  %millis_ = getelementptr inbounds %"class.grpc_core::Timestamp", ptr %this1, i32 0, i32 0
  store i64 0, ptr %millis_, align 8
  ret void
}

; Function Attrs: mustprogress nounwind uwtable
define linkonce_odr void @_ZN9grpc_core6XdsApi16ResourceMetadataD2Ev(ptr noundef nonnull align 8 dereferenceable(152) %this) unnamed_addr #5 comdat align 2 {
entry:
  %this.addr = alloca ptr, align 8
  store ptr %this, ptr %this.addr, align 8
  %this1 = load ptr, ptr %this.addr, align 8
  %failed_details = getelementptr inbounds %"struct.grpc_core::XdsApi::ResourceMetadata", ptr %this1, i32 0, i32 5
  call void @_ZNSt7__cxx1112basic_stringIcSt11char_traitsIcESaIcEED1Ev(ptr noundef nonnull align 8 dereferenceable(32) %failed_details) #3
  %failed_version = getelementptr inbounds %"struct.grpc_core::XdsApi::ResourceMetadata", ptr %this1, i32 0, i32 4
  call void @_ZNSt7__cxx1112basic_stringIcSt11char_traitsIcESaIcEED1Ev(ptr noundef nonnull align 8 dereferenceable(32) %failed_version) #3
  %version = getelementptr inbounds %"struct.grpc_core::XdsApi::ResourceMetadata", ptr %this1, i32 0, i32 3
  call void @_ZNSt7__cxx1112basic_stringIcSt11char_traitsIcESaIcEED1Ev(ptr noundef nonnull align 8 dereferenceable(32) %version) #3
  %serialized_proto = getelementptr inbounds %"struct.grpc_core::XdsApi::ResourceMetadata", ptr %this1, i32 0, i32 1
  call void @_ZNSt7__cxx1112basic_stringIcSt11char_traitsIcESaIcEED1Ev(ptr noundef nonnull align 8 dereferenceable(32) %serialized_proto) #3
  ret void
}

; Function Attrs: mustprogress nounwind uwtable
define linkonce_odr void @_ZN9grpc_core6XdsApi16ResourceMetadataC2Ev(ptr noundef nonnull align 8 dereferenceable(152) %this) unnamed_addr #5 comdat align 2 {
entry:
  %this.addr = alloca ptr, align 8
  store ptr %this, ptr %this.addr, align 8
  %this1 = load ptr, ptr %this.addr, align 8
  %client_status = getelementptr inbounds %"struct.grpc_core::XdsApi::ResourceMetadata", ptr %this1, i32 0, i32 0
  store i32 1, ptr %client_status, align 8
  %serialized_proto = getelementptr inbounds %"struct.grpc_core::XdsApi::ResourceMetadata", ptr %this1, i32 0, i32 1
  call void @_ZNSt7__cxx1112basic_stringIcSt11char_traitsIcESaIcEEC1Ev(ptr noundef nonnull align 8 dereferenceable(32) %serialized_proto) #3
  %update_time = getelementptr inbounds %"struct.grpc_core::XdsApi::ResourceMetadata", ptr %this1, i32 0, i32 2
  call void @_ZN9grpc_core9TimestampC2Ev(ptr noundef nonnull align 8 dereferenceable(8) %update_time) #3
  %version = getelementptr inbounds %"struct.grpc_core::XdsApi::ResourceMetadata", ptr %this1, i32 0, i32 3
  call void @_ZNSt7__cxx1112basic_stringIcSt11char_traitsIcESaIcEEC1Ev(ptr noundef nonnull align 8 dereferenceable(32) %version) #3
  %failed_version = getelementptr inbounds %"struct.grpc_core::XdsApi::ResourceMetadata", ptr %this1, i32 0, i32 4
  call void @_ZNSt7__cxx1112basic_stringIcSt11char_traitsIcESaIcEEC1Ev(ptr noundef nonnull align 8 dereferenceable(32) %failed_version) #3
  %failed_details = getelementptr inbounds %"struct.grpc_core::XdsApi::ResourceMetadata", ptr %this1, i32 0, i32 5
  call void @_ZNSt7__cxx1112basic_stringIcSt11char_traitsIcESaIcEEC1Ev(ptr noundef nonnull align 8 dereferenceable(32) %failed_details) #3
  %failed_update_time = getelementptr inbounds %"struct.grpc_core::XdsApi::ResourceMetadata", ptr %this1, i32 0, i32 6
  call void @_ZN9grpc_core9TimestampC2Ev(ptr noundef nonnull align 8 dereferenceable(8) %failed_update_time) #3
  ret void
}

; Function Attrs: mustprogress nounwind uwtable
define internal void @_ZN9grpc_core12_GLOBAL__N_127CreateResourceMetadataAckedENSt7__cxx1112basic_stringIcSt11char_traitsIcESaIcEEES6_NS_9TimestampE(ptr noalias sret(%"struct.grpc_core::XdsApi::ResourceMetadata") align 8 %agg.result, ptr noundef %serialized_proto, ptr noundef %version, i64 %update_time.coerce) #5 {
entry:
  %result.ptr = alloca ptr, align 8
  %update_time = alloca %"class.grpc_core::Timestamp", align 8
  %serialized_proto.indirect_addr = alloca ptr, align 8
  %version.indirect_addr = alloca ptr, align 8
  %nrvo = alloca i1, align 1
  store ptr %agg.result, ptr %result.ptr, align 8
  %coerce.dive = getelementptr inbounds %"class.grpc_core::Timestamp", ptr %update_time, i32 0, i32 0
  store i64 %update_time.coerce, ptr %coerce.dive, align 8
  store ptr %serialized_proto, ptr %serialized_proto.indirect_addr, align 8
  store ptr %version, ptr %version.indirect_addr, align 8
  store i1 false, ptr %nrvo, align 1
  call void @_ZN9grpc_core6XdsApi16ResourceMetadataC2Ev(ptr noundef nonnull align 8 dereferenceable(152) %agg.result) #3
  %serialized_proto1 = getelementptr inbounds %"struct.grpc_core::XdsApi::ResourceMetadata", ptr %agg.result, i32 0, i32 1
  %call = call noundef nonnull align 8 dereferenceable(32) ptr @_ZNSt7__cxx1112basic_stringIcSt11char_traitsIcESaIcEEaSEOS4_(ptr noundef nonnull align 8 dereferenceable(32) %serialized_proto1, ptr noundef nonnull align 8 dereferenceable(32) %serialized_proto) #3
  %update_time2 = getelementptr inbounds %"struct.grpc_core::XdsApi::ResourceMetadata", ptr %agg.result, i32 0, i32 2
  call void @llvm.memcpy.p0.p0.i64(ptr align 8 %update_time2, ptr align 8 %update_time, i64 8, i1 false)
  %version3 = getelementptr inbounds %"struct.grpc_core::XdsApi::ResourceMetadata", ptr %agg.result, i32 0, i32 3
  %call4 = call noundef nonnull align 8 dereferenceable(32) ptr @_ZNSt7__cxx1112basic_stringIcSt11char_traitsIcESaIcEEaSEOS4_(ptr noundef nonnull align 8 dereferenceable(32) %version3, ptr noundef nonnull align 8 dereferenceable(32) %version) #3
  %client_status = getelementptr inbounds %"struct.grpc_core::XdsApi::ResourceMetadata", ptr %agg.result, i32 0, i32 0
  store i32 3, ptr %client_status, align 8
  store i1 true, ptr %nrvo, align 1
  %nrvo.val = load i1, ptr %nrvo, align 1
  br i1 %nrvo.val, label %nrvo.skipdtor, label %nrvo.unused

nrvo.unused:                                      ; preds = %entry
  call void @_ZN9grpc_core6XdsApi16ResourceMetadataD2Ev(ptr noundef nonnull align 8 dereferenceable(152) %agg.result) #3
  br label %nrvo.skipdtor

nrvo.skipdtor:                                    ; preds = %nrvo.unused, %entry
  ret void
}