; Function Attrs: mustprogress nounwind uwtable
define internal fastcc void @_ZN9grpc_core12_GLOBAL__N_127CreateResourceMetadataAckedENSt7__cxx1112basic_stringIcSt11char_traitsIcESaIcEEES6_NS_9TimestampE(ptr noalias align 8 %agg.result, ptr noundef %serialized_proto, ptr noundef %version, i64 %update_time.coerce) unnamed_addr #4 {
entry:
  store i32 1, ptr %agg.result, align 8
  %serialized_proto.i = getelementptr inbounds i8, ptr %agg.result, i64 8
  tail call void @_ZNSt7__cxx1112basic_stringIcSt11char_traitsIcESaIcEEC1Ev(ptr noundef nonnull align 8 dereferenceable(32) %serialized_proto.i) #25
  %update_time.i = getelementptr inbounds i8, ptr %agg.result, i64 40
  store i64 0, ptr %update_time.i, align 8
  %version.i = getelementptr inbounds i8, ptr %agg.result, i64 48
  tail call void @_ZNSt7__cxx1112basic_stringIcSt11char_traitsIcESaIcEEC1Ev(ptr noundef nonnull align 8 dereferenceable(32) %version.i) #25
  %failed_version.i = getelementptr inbounds i8, ptr %agg.result, i64 80
  tail call void @_ZNSt7__cxx1112basic_stringIcSt11char_traitsIcESaIcEEC1Ev(ptr noundef nonnull align 8 dereferenceable(32) %failed_version.i) #25
  %failed_details.i = getelementptr inbounds i8, ptr %agg.result, i64 112
  tail call void @_ZNSt7__cxx1112basic_stringIcSt11char_traitsIcESaIcEEC1Ev(ptr noundef nonnull align 8 dereferenceable(32) %failed_details.i) #25
  %failed_update_time.i = getelementptr inbounds i8, ptr %agg.result, i64 144
  store i64 0, ptr %failed_update_time.i, align 8
  %call = tail call noundef nonnull align 8 dereferenceable(32) ptr @_ZNSt7__cxx1112basic_stringIcSt11char_traitsIcESaIcEEaSEOS4_(ptr noundef nonnull align 8 dereferenceable(32) %serialized_proto.i, ptr noundef nonnull align 8 dereferenceable(32) %serialized_proto) #25
  store i64 %update_time.coerce, ptr %update_time.i, align 8
  %call4 = tail call noundef nonnull align 8 dereferenceable(32) ptr @_ZNSt7__cxx1112basic_stringIcSt11char_traitsIcESaIcEEaSEOS4_(ptr noundef nonnull align 8 dereferenceable(32) %version.i, ptr noundef nonnull align 8 dereferenceable(32) %version) #25
  store i32 3, ptr %agg.result, align 8
  ret void
}